; Function Attrs: nounwind uwtable
define nonnull ptr @lv_draw_create_unit(i64 noundef %0) local_unnamed_addr #1 {
  %2 = tail call ptr @lv_malloc_zeroed(i64 noundef %0) #11
  %.not = icmp eq ptr %2, null
  br i1 %.not, label %.preheader, label %3

.preheader:                                       ; preds = %1, %.preheader
  br label %.preheader

3:                                                ; preds = %1
  %4 = load ptr, ptr getelementptr inbounds nuw (i8, ptr @lv_global, i64 536), align 8, !tbaa !3
  store ptr %4, ptr %2, align 8, !tbaa !30
  store ptr %2, ptr getelementptr inbounds nuw (i8, ptr @lv_global, i64 536), align 8, !tbaa !3
  %5 = load i32, ptr getelementptr inbounds nuw (i8, ptr @lv_global, i64 544), align 8, !tbaa !35
  %6 = add i32 %5, 1
  store i32 %6, ptr getelementptr inbounds nuw (i8, ptr @lv_global, i64 544), align 8, !tbaa !35
  %7 = getelementptr inbounds nuw i8, ptr %2, i64 16
  store i32 %6, ptr %7, align 8, !tbaa !36
  ret ptr %2
}